target datalayout = "e-m:e-p270:32:32-p271:32:32-p272:64:64-i64:64-i128:128-f80:128-n8:16:32:64-S128"
target triple = "x86_64-unknown-linux-gnu"

%"class.icu_75::UnicodeString" = type { %"class.icu_75::Replaceable", %"union.icu_75::UnicodeString::StackBufferOrFields" }
%"class.icu_75::Replaceable" = type { %"class.icu_75::UObject" }
%"class.icu_75::UObject" = type { ptr }
%"union.icu_75::UnicodeString::StackBufferOrFields" = type { %struct.anon.0, [32 x i8] }
%struct.anon.0 = type { i16, i32, i32, ptr }
%struct.anon = type { i16, [27 x i16] }

@.str = private unnamed_addr constant [2 x i8] c"[\00", align 1
@.str.1 = private unnamed_addr constant [2 x i8] c"]\00", align 1

; Function Attrs: mustprogress nounwind uwtable
define linkonce_odr noundef ptr @_ZNK6icu_7513UnicodeString13getArrayStartEv(ptr noundef nonnull align 8 dereferenceable(64) %this) #0 comdat align 2 {
entry:
  %this.addr = alloca ptr, align 8
  store ptr %this, ptr %this.addr, align 8
  %this1 = load ptr, ptr %this.addr, align 8
  %fUnion = getelementptr inbounds %"class.icu_75::UnicodeString", ptr %this1, i32 0, i32 1
  %fLengthAndFlags = getelementptr inbounds %struct.anon.0, ptr %fUnion, i32 0, i32 0
  %0 = load i16, ptr %fLengthAndFlags, align 8
  %conv = sext i16 %0 to i32
  %and = and i32 %conv, 2
  %tobool = icmp ne i32 %and, 0
  br i1 %tobool, label %cond.true, label %cond.false

cond.true:                                        ; preds = %entry
  %fUnion2 = getelementptr inbounds %"class.icu_75::UnicodeString", ptr %this1, i32 0, i32 1
  %fBuffer = getelementptr inbounds %struct.anon, ptr %fUnion2, i32 0, i32 1
  %arraydecay = getelementptr inbounds [27 x i16], ptr %fBuffer, i64 0, i64 0
  br label %cond.end

cond.false:                                       ; preds = %entry
  %fUnion3 = getelementptr inbounds %"class.icu_75::UnicodeString", ptr %this1, i32 0, i32 1
  %fArray = getelementptr inbounds %struct.anon.0, ptr %fUnion3, i32 0, i32 3
  %1 = load ptr, ptr %fArray, align 8
  br label %cond.end

cond.end:                                         ; preds = %cond.false, %cond.true
  %cond = phi ptr [ %arraydecay, %cond.true ], [ %1, %cond.false ]
  ret ptr %cond
}

; Function Attrs: mustprogress uwtable
define linkonce_odr noundef zeroext i16 @_ZNK6icu_7513UnicodeString8doCharAtEi(ptr noundef nonnull align 8 dereferenceable(64) %this, i32 noundef %offset) #1 comdat align 2 {
entry:
  %retval = alloca i16, align 2
  %this.addr = alloca ptr, align 8
  %offset.addr = alloca i32, align 4
  store ptr %this, ptr %this.addr, align 8
  store i32 %offset, ptr %offset.addr, align 4
  %this1 = load ptr, ptr %this.addr, align 8
  %0 = load i32, ptr %offset.addr, align 4
  %call = call noundef i32 @_ZNK6icu_7513UnicodeString6lengthEv(ptr noundef nonnull align 8 dereferenceable(64) %this1)
  %cmp = icmp ult i32 %0, %call
  br i1 %cmp, label %if.then, label %if.else

if.then:                                          ; preds = %entry
  %call2 = call noundef ptr @_ZNK6icu_7513UnicodeString13getArrayStartEv(ptr noundef nonnull align 8 dereferenceable(64) %this1)
  %1 = load i32, ptr %offset.addr, align 4
  %idxprom = sext i32 %1 to i64
  %arrayidx = getelementptr inbounds i16, ptr %call2, i64 %idxprom
  %2 = load i16, ptr %arrayidx, align 2
  store i16 %2, ptr %retval, align 2
  br label %return

if.else:                                          ; preds = %entry
  store i16 -1, ptr %retval, align 2
  br label %return

return:                                           ; preds = %if.else, %if.then
  %3 = load i16, ptr %retval, align 2
  ret i16 %3
}

; Function Attrs: mustprogress nounwind uwtable
define linkonce_odr noundef i32 @_ZNK6icu_7513UnicodeString14getShortLengthEv(ptr noundef nonnull align 8 dereferenceable(64) %this) #0 comdat align 2 {
entry:
  %this.addr = alloca ptr, align 8
  store ptr %this, ptr %this.addr, align 8
  %this1 = load ptr, ptr %this.addr, align 8
  %fUnion = getelementptr inbounds %"class.icu_75::UnicodeString", ptr %this1, i32 0, i32 1
  %fLengthAndFlags = getelementptr inbounds %struct.anon.0, ptr %fUnion, i32 0, i32 0
  %0 = load i16, ptr %fLengthAndFlags, align 8
  %conv = sext i16 %0 to i32
  %shr = ashr i32 %conv, 5
  ret i32 %shr
}

; Function Attrs: mustprogress nounwind uwtable
define linkonce_odr noundef signext i8 @_ZNK6icu_7513UnicodeString14hasShortLengthEv(ptr noundef nonnull align 8 dereferenceable(64) %this) #0 comdat align 2 {
entry:
  %this.addr = alloca ptr, align 8
  store ptr %this, ptr %this.addr, align 8
  %this1 = load ptr, ptr %this.addr, align 8
  %fUnion = getelementptr inbounds %"class.icu_75::UnicodeString", ptr %this1, i32 0, i32 1
  %fLengthAndFlags = getelementptr inbounds %struct.anon.0, ptr %fUnion, i32 0, i32 0
  %0 = load i16, ptr %fLengthAndFlags, align 8
  %conv = sext i16 %0 to i32
  %cmp = icmp sge i32 %conv, 0
  %conv2 = zext i1 %cmp to i8
  ret i8 %conv2
}

; Function Attrs: mustprogress nounwind uwtable
define linkonce_odr void @_ZN6icu_7513UnicodeString13setZeroLengthEv(ptr noundef nonnull align 8 dereferenceable(64) %this) #0 comdat align 2 {
entry:
  %this.addr = alloca ptr, align 8
  store ptr %this, ptr %this.addr, align 8
  %this1 = load ptr, ptr %this.addr, align 8
  %fUnion = getelementptr inbounds %"class.icu_75::UnicodeString", ptr %this1, i32 0, i32 1
  %fLengthAndFlags = getelementptr inbounds %struct.anon.0, ptr %fUnion, i32 0, i32 0
  %0 = load i16, ptr %fLengthAndFlags, align 8
  %conv = sext i16 %0 to i32
  %and = and i32 %conv, 31
  %conv2 = trunc i32 %and to i16
  store i16 %conv2, ptr %fLengthAndFlags, align 8
  ret void
}

; Function Attrs: mustprogress nounwind uwtable
define linkonce_odr void @_ZN6icu_7513UnicodeString10setToEmptyEv(ptr noundef nonnull align 8 dereferenceable(64) %this) #0 comdat align 2 {
entry:
  %this.addr = alloca ptr, align 8
  store ptr %this, ptr %this.addr, align 8
  %this1 = load ptr, ptr %this.addr, align 8
  %fUnion = getelementptr inbounds %"class.icu_75::UnicodeString", ptr %this1, i32 0, i32 1
  %fLengthAndFlags = getelementptr inbounds %struct.anon.0, ptr %fUnion, i32 0, i32 0
  store i16 2, ptr %fLengthAndFlags, align 8
  ret void
}

; Function Attrs: mustprogress nounwind uwtable
define linkonce_odr noundef signext i8 @_ZNK6icu_7513UnicodeString7isBogusEv(ptr noundef nonnull align 8 dereferenceable(64) %this) #0 comdat align 2 {
entry:
  %this.addr = alloca ptr, align 8
  store ptr %this, ptr %this.addr, align 8
  %this1 = load ptr, ptr %this.addr, align 8
  %fUnion = getelementptr inbounds %"class.icu_75::UnicodeString", ptr %this1, i32 0, i32 1
  %fLengthAndFlags = getelementptr inbounds %struct.anon.0, ptr %fUnion, i32 0, i32 0
  %0 = load i16, ptr %fLengthAndFlags, align 8
  %conv = sext i16 %0 to i32
  %and = and i32 %conv, 1
  %conv2 = trunc i32 %and to i8
  ret i8 %conv2
}

; Function Attrs: mustprogress uwtable
define linkonce_odr noundef nonnull align 8 dereferenceable(64) ptr @_ZN6icu_7513UnicodeStringpLEDs(ptr noundef nonnull align 8 dereferenceable(64) %this, i16 noundef zeroext %ch) #1 comdat align 2 {
entry:
  %this.addr = alloca ptr, align 8
  %ch.addr = alloca i16, align 2
  store ptr %this, ptr %this.addr, align 8
  store i16 %ch, ptr %ch.addr, align 2
  %this1 = load ptr, ptr %this.addr, align 8
  %call = call noundef nonnull align 8 dereferenceable(64) ptr @_ZN6icu_7513UnicodeString8doAppendEPKDsii(ptr noundef nonnull align 8 dereferenceable(64) %this1, ptr noundef %ch.addr, i32 noundef 0, i32 noundef 1)
  ret ptr %call
}

; Function Attrs: mustprogress uwtable
define linkonce_odr noundef nonnull align 8 dereferenceable(64) ptr @_ZN6icu_7513UnicodeStringpLERKS0_(ptr noundef nonnull align 8 dereferenceable(64) %this, ptr noundef nonnull align 8 dereferenceable(64) %srcText) #1 comdat align 2 {
entry:
  %this.addr = alloca ptr, align 8
  %srcText.addr = alloca ptr, align 8
  store ptr %this, ptr %this.addr, align 8
  store ptr %srcText, ptr %srcText.addr, align 8
  %this1 = load ptr, ptr %this.addr, align 8
  %0 = load ptr, ptr %srcText.addr, align 8
  %1 = load ptr, ptr %srcText.addr, align 8
  %call = call noundef i32 @_ZNK6icu_7513UnicodeString6lengthEv(ptr noundef nonnull align 8 dereferenceable(64) %1)
  %call2 = call noundef nonnull align 8 dereferenceable(64) ptr @_ZN6icu_7513UnicodeString8doAppendERKS0_ii(ptr noundef nonnull align 8 dereferenceable(64) %this1, ptr noundef nonnull align 8 dereferenceable(64) %0, i32 noundef 0, i32 noundef %call)
  ret ptr %call2
}

; Function Attrs: mustprogress uwtable
define linkonce_odr noundef zeroext i16 @_ZNK6icu_7513UnicodeStringixEi(ptr noundef nonnull align 8 dereferenceable(64) %this, i32 noundef %offset) #1 comdat align 2 {
entry:
  %this.addr = alloca ptr, align 8
  %offset.addr = alloca i32, align 4
  store ptr %this, ptr %this.addr, align 8
  store i32 %offset, ptr %offset.addr, align 4
  %this1 = load ptr, ptr %this.addr, align 8
  %0 = load i32, ptr %offset.addr, align 4
  %call = call noundef zeroext i16 @_ZNK6icu_7513UnicodeString8doCharAtEi(ptr noundef nonnull align 8 dereferenceable(64) %this1, i32 noundef %0)
  ret i16 %call
}

; Function Attrs: mustprogress uwtable
define linkonce_odr noundef i32 @_ZNK6icu_7513UnicodeString6lengthEv(ptr noundef nonnull align 8 dereferenceable(64) %this) #1 comdat align 2 {
entry:
  %this.addr = alloca ptr, align 8
  store ptr %this, ptr %this.addr, align 8
  %this1 = load ptr, ptr %this.addr, align 8
  %call = call noundef signext i8 @_ZNK6icu_7513UnicodeString14hasShortLengthEv(ptr noundef nonnull align 8 dereferenceable(64) %this1)
  %tobool = icmp ne i8 %call, 0
  br i1 %tobool, label %cond.true, label %cond.false

cond.true:                                        ; preds = %entry
  %call2 = call noundef i32 @_ZNK6icu_7513UnicodeString14getShortLengthEv(ptr noundef nonnull align 8 dereferenceable(64) %this1)
  br label %cond.end

cond.false:                                       ; preds = %entry
  %fUnion = getelementptr inbounds %"class.icu_75::UnicodeString", ptr %this1, i32 0, i32 1
  %fLength = getelementptr inbounds %struct.anon.0, ptr %fUnion, i32 0, i32 1
  %0 = load i32, ptr %fLength, align 4
  br label %cond.end

cond.end:                                         ; preds = %cond.false, %cond.true
  %cond = phi i32 [ %call2, %cond.true ], [ %0, %cond.false ]
  ret i32 %cond
}

; Function Attrs: mustprogress uwtable
define linkonce_odr noundef nonnull align 8 dereferenceable(64) ptr @_ZN6icu_7513UnicodeString6removeEv(ptr noundef nonnull align 8 dereferenceable(64) %this) #1 comdat align 2 {
entry:
  %this.addr = alloca ptr, align 8
  store ptr %this, ptr %this.addr, align 8
  %this1 = load ptr, ptr %this.addr, align 8
  %call = call noundef signext i8 @_ZNK6icu_7513UnicodeString7isBogusEv(ptr noundef nonnull align 8 dereferenceable(64) %this1)
  %tobool = icmp ne i8 %call, 0
  br i1 %tobool, label %if.then, label %if.else

if.then:                                          ; preds = %entry
  call void @_ZN6icu_7513UnicodeString10setToEmptyEv(ptr noundef nonnull align 8 dereferenceable(64) %this1)
  br label %if.end

if.else:                                          ; preds = %entry
  call void @_ZN6icu_7513UnicodeString13setZeroLengthEv(ptr noundef nonnull align 8 dereferenceable(64) %this1)
  br label %if.end

if.end:                                           ; preds = %if.else, %if.then
  ret ptr %this1
}

; Function Attrs: mustprogress uwtable
define ptr @udbg_escape(ptr noundef nonnull align 8 dereferenceable(64) %src, ptr noundef %dst) #1 personality ptr @__gxx_personality_v0 {
entry:
  %src.addr = alloca ptr, align 8
  %dst.addr = alloca ptr, align 8
  %i = alloca i32, align 4
  %c = alloca i16, align 2
  %ref.tmp = alloca %"class.icu_75::UnicodeString", align 8
  %exn.slot = alloca ptr, align 8
  %ehselector.slot = alloca i32, align 4
  %ref.tmp7 = alloca %"class.icu_75::UnicodeString", align 8
  store ptr %src, ptr %src.addr, align 8
  store ptr %dst, ptr %dst.addr, align 8
  %0 = load ptr, ptr %dst.addr, align 8
  %call = call noundef nonnull align 8 dereferenceable(64) ptr @_ZN6icu_7513UnicodeString6removeEv(ptr noundef nonnull align 8 dereferenceable(64) %0)
  store i32 0, ptr %i, align 4
  br label %for.cond

for.cond:                                         ; preds = %for.inc, %entry
  %1 = load i32, ptr %i, align 4
  %2 = load ptr, ptr %src.addr, align 8
  %call1 = call noundef i32 @_ZNK6icu_7513UnicodeString6lengthEv(ptr noundef nonnull align 8 dereferenceable(64) %2)
  %cmp = icmp slt i32 %1, %call1
  br i1 %cmp, label %for.body, label %for.end

for.body:                                         ; preds = %for.cond
  %3 = load ptr, ptr %src.addr, align 8
  %4 = load i32, ptr %i, align 4
  %call2 = call noundef zeroext i16 @_ZNK6icu_7513UnicodeStringixEi(ptr noundef nonnull align 8 dereferenceable(64) %3, i32 noundef %4)
  store i16 %call2, ptr %c, align 2
  %5 = load i16, ptr %c, align 2
  %conv = zext i16 %5 to i32
  %call3 = call noundef signext i8 @_ZN6icu_7511ICU_Utility13isUnprintableEi(i32 noundef %conv)
  %tobool = icmp ne i8 %call3, 0
  br i1 %tobool, label %if.then, label %if.else

if.then:                                          ; preds = %for.body
  call void @_ZN6icu_7513UnicodeStringC1EPKc(ptr noundef nonnull align 8 dereferenceable(64) %ref.tmp, ptr noundef @.str)
  %6 = load ptr, ptr %dst.addr, align 8
  %call4 = invoke noundef nonnull align 8 dereferenceable(64) ptr @_ZN6icu_7513UnicodeStringpLERKS0_(ptr noundef nonnull align 8 dereferenceable(64) %6, ptr noundef nonnull align 8 dereferenceable(64) %ref.tmp)
          to label %invoke.cont unwind label %lpad

invoke.cont:                                      ; preds = %if.then
  call void @_ZN6icu_7513UnicodeStringD1Ev(ptr noundef nonnull align 8 dereferenceable(64) %ref.tmp) #11
  %7 = load ptr, ptr %dst.addr, align 8
  %8 = load i16, ptr %c, align 2
  %conv5 = zext i16 %8 to i32
  %call6 = call noundef signext i8 @_ZN6icu_7511ICU_Utility17escapeUnprintableERNS_13UnicodeStringEi(ptr noundef nonnull align 8 dereferenceable(64) %7, i32 noundef %conv5)
  call void @_ZN6icu_7513UnicodeStringC1EPKc(ptr noundef nonnull align 8 dereferenceable(64) %ref.tmp7, ptr noundef @.str.1)
  %9 = load ptr, ptr %dst.addr, align 8
  %call10 = invoke noundef nonnull align 8 dereferenceable(64) ptr @_ZN6icu_7513UnicodeStringpLERKS0_(ptr noundef nonnull align 8 dereferenceable(64) %9, ptr noundef nonnull align 8 dereferenceable(64) %ref.tmp7)
          to label %invoke.cont9 unwind label %lpad8

invoke.cont9:                                     ; preds = %invoke.cont
  call void @_ZN6icu_7513UnicodeStringD1Ev(ptr noundef nonnull align 8 dereferenceable(64) %ref.tmp7) #11
  br label %if.end

lpad:                                             ; preds = %if.then
  %10 = landingpad { ptr, i32 }
          cleanup
  %11 = extractvalue { ptr, i32 } %10, 0
  store ptr %11, ptr %exn.slot, align 8
  %12 = extractvalue { ptr, i32 } %10, 1
  store i32 %12, ptr %ehselector.slot, align 4
  call void @_ZN6icu_7513UnicodeStringD1Ev(ptr noundef nonnull align 8 dereferenceable(64) %ref.tmp) #11
  br label %eh.resume

lpad8:                                            ; preds = %invoke.cont
  %13 = landingpad { ptr, i32 }
          cleanup
  %14 = extractvalue { ptr, i32 } %13, 0
  store ptr %14, ptr %exn.slot, align 8
  %15 = extractvalue { ptr, i32 } %13, 1
  store i32 %15, ptr %ehselector.slot, align 4
  call void @_ZN6icu_7513UnicodeStringD1Ev(ptr noundef nonnull align 8 dereferenceable(64) %ref.tmp7) #11
  br label %eh.resume

if.else:                                          ; preds = %for.body
  %16 = load i16, ptr %c, align 2
  %17 = load ptr, ptr %dst.addr, align 8
  %call11 = call noundef nonnull align 8 dereferenceable(64) ptr @_ZN6icu_7513UnicodeStringpLEDs(ptr noundef nonnull align 8 dereferenceable(64) %17, i16 noundef zeroext %16)
  br label %if.end

if.end:                                           ; preds = %if.else, %invoke.cont9
  br label %for.inc

for.inc:                                          ; preds = %if.end
  %18 = load i32, ptr %i, align 4
  %inc = add nsw i32 %18, 1
  store i32 %inc, ptr %i, align 4
  br label %for.cond, !llvm.loop !9

for.end:                                          ; preds = %for.cond
  %19 = load ptr, ptr %dst.addr, align 8
  ret ptr %19

eh.resume:                                        ; preds = %lpad8, %lpad
  %exn = load ptr, ptr %exn.slot, align 8
  %sel = load i32, ptr %ehselector.slot, align 4
  %lpad.val = insertvalue { ptr, i32 } poison, ptr %exn, 0
  %lpad.val12 = insertvalue { ptr, i32 } %lpad.val, i32 %sel, 1
  resume { ptr, i32 } %lpad.val12
}