; Function Attrs: mustprogress uwtable
define noundef ptr @udbg_escape(ptr nocapture noundef nonnull readonly align 8 dereferenceable(64) %src, ptr noundef returned %dst) local_unnamed_addr #1 personality ptr @__gxx_personality_v0 {
entry:
  %ch.addr.i = alloca i16, align 2
  %ref.tmp = alloca %"class.icu_75::UnicodeString", align 8
  %ref.tmp7 = alloca %"class.icu_75::UnicodeString", align 8
  %fUnion.i.i = getelementptr inbounds i8, ptr %dst, i64 8
  %0 = load i16, ptr %fUnion.i.i, align 8
  %conv2.i3.i = and i16 %0, 1
  %tobool.not.i = icmp eq i16 %conv2.i3.i, 0
  %1 = and i16 %0, 30
  %storemerge.i = select i1 %tobool.not.i, i16 %1, i16 2
  store i16 %storemerge.i, ptr %fUnion.i.i, align 8
  %fUnion.i.i12 = getelementptr inbounds i8, ptr %src, i64 8
  %fLength.i = getelementptr inbounds i8, ptr %src, i64 12
  %2 = load i16, ptr %fUnion.i.i12, align 8
  %cmp.i.i22 = icmp slt i16 %2, 0
  %3 = ashr i16 %2, 5
  %shr.i.i23 = sext i16 %3 to i32
  %4 = load i32, ptr %fLength.i, align 4
  %cond.i24 = select i1 %cmp.i.i22, i32 %4, i32 %shr.i.i23
  %cmp25 = icmp sgt i32 %cond.i24, 0
  br i1 %cmp25, label %for.body.lr.ph, label %for.end

for.body.lr.ph:                                   ; preds = %entry
  %fBuffer.i.i.i = getelementptr inbounds i8, ptr %src, i64 10
  %fArray.i.i.i = getelementptr inbounds i8, ptr %src, i64 24
  %fUnion.i.i.i = getelementptr inbounds i8, ptr %ref.tmp, i64 8
  %fLength.i.i = getelementptr inbounds i8, ptr %ref.tmp, i64 12
  %fUnion.i.i.i15 = getelementptr inbounds i8, ptr %ref.tmp7, i64 8
  %fLength.i.i18 = getelementptr inbounds i8, ptr %ref.tmp7, i64 12
  br label %for.body

for.body:                                         ; preds = %for.body.lr.ph, %for.inc
  %indvars.iv = phi i64 [ 0, %for.body.lr.ph ], [ %indvars.iv.next, %for.inc ]
  %5 = phi i16 [ %2, %for.body.lr.ph ], [ %17, %for.inc ]
  %6 = and i16 %5, 2
  %tobool.not.i.i.i = icmp eq i16 %6, 0
  %7 = load ptr, ptr %fArray.i.i.i, align 8
  %cond.i2.i.i = select i1 %tobool.not.i.i.i, ptr %7, ptr %fBuffer.i.i.i
  %arrayidx.i.i = getelementptr inbounds i16, ptr %cond.i2.i.i, i64 %indvars.iv
  %8 = load i16, ptr %arrayidx.i.i, align 2
  %conv = zext i16 %8 to i32
  %call3 = call noundef signext i8 @_ZN6icu_7511ICU_Utility13isUnprintableEi(i32 noundef %conv)
  %tobool.not = icmp eq i8 %call3, 0
  br i1 %tobool.not, label %if.else, label %if.then

if.then:                                          ; preds = %for.body
  call void @_ZN6icu_7513UnicodeStringC1EPKc(ptr noundef nonnull align 8 dereferenceable(64) %ref.tmp, ptr noundef nonnull @.str)
  %9 = load i16, ptr %fUnion.i.i.i, align 8
  %cmp.i.i.i = icmp slt i16 %9, 0
  %10 = ashr i16 %9, 5
  %shr.i.i.i = sext i16 %10 to i32
  %11 = load i32, ptr %fLength.i.i, align 4
  %cond.i.i = select i1 %cmp.i.i.i, i32 %11, i32 %shr.i.i.i
  %call2.i14 = invoke noundef nonnull align 8 dereferenceable(64) ptr @_ZN6icu_7513UnicodeString8doAppendERKS0_ii(ptr noundef nonnull align 8 dereferenceable(64) %dst, ptr noundef nonnull align 8 dereferenceable(64) %ref.tmp, i32 noundef 0, i32 noundef %cond.i.i)
          to label %invoke.cont unwind label %lpad

invoke.cont:                                      ; preds = %if.then
  call void @_ZN6icu_7513UnicodeStringD1Ev(ptr noundef nonnull align 8 dereferenceable(64) %ref.tmp) #12
  %call6 = call noundef signext i8 @_ZN6icu_7511ICU_Utility17escapeUnprintableERNS_13UnicodeStringEi(ptr noundef nonnull align 8 dereferenceable(64) %dst, i32 noundef %conv)
  call void @_ZN6icu_7513UnicodeStringC1EPKc(ptr noundef nonnull align 8 dereferenceable(64) %ref.tmp7, ptr noundef nonnull @.str.1)
  %12 = load i16, ptr %fUnion.i.i.i15, align 8
  %cmp.i.i.i16 = icmp slt i16 %12, 0
  %13 = ashr i16 %12, 5
  %shr.i.i.i17 = sext i16 %13 to i32
  %14 = load i32, ptr %fLength.i.i18, align 4
  %cond.i.i19 = select i1 %cmp.i.i.i16, i32 %14, i32 %shr.i.i.i17
  %call2.i20 = invoke noundef nonnull align 8 dereferenceable(64) ptr @_ZN6icu_7513UnicodeString8doAppendERKS0_ii(ptr noundef nonnull align 8 dereferenceable(64) %dst, ptr noundef nonnull align 8 dereferenceable(64) %ref.tmp7, i32 noundef 0, i32 noundef %cond.i.i19)
          to label %invoke.cont9 unwind label %lpad8

invoke.cont9:                                     ; preds = %invoke.cont
  call void @_ZN6icu_7513UnicodeStringD1Ev(ptr noundef nonnull align 8 dereferenceable(64) %ref.tmp7) #12
  br label %for.inc

lpad:                                             ; preds = %if.then
  %15 = landingpad { ptr, i32 }
          cleanup
  br label %eh.resume

lpad8:                                            ; preds = %invoke.cont
  %16 = landingpad { ptr, i32 }
          cleanup
  br label %eh.resume

if.else:                                          ; preds = %for.body
  call void @llvm.lifetime.start.p0(i64 2, ptr nonnull %ch.addr.i)
  store i16 %8, ptr %ch.addr.i, align 2
  %call.i = call noundef nonnull align 8 dereferenceable(64) ptr @_ZN6icu_7513UnicodeString8doAppendEPKDsii(ptr noundef nonnull align 8 dereferenceable(64) %dst, ptr noundef nonnull %ch.addr.i, i32 noundef 0, i32 noundef 1)
  call void @llvm.lifetime.end.p0(i64 2, ptr nonnull %ch.addr.i)
  br label %for.inc

for.inc:                                          ; preds = %invoke.cont9, %if.else
  %indvars.iv.next = add nuw nsw i64 %indvars.iv, 1
  %17 = load i16, ptr %fUnion.i.i12, align 8
  %cmp.i.i = icmp slt i16 %17, 0
  %18 = ashr i16 %17, 5
  %shr.i.i = sext i16 %18 to i32
  %19 = load i32, ptr %fLength.i, align 4
  %cond.i = select i1 %cmp.i.i, i32 %19, i32 %shr.i.i
  %20 = sext i32 %cond.i to i64
  %cmp = icmp slt i64 %indvars.iv.next, %20
  br i1 %cmp, label %for.body, label %for.end, !llvm.loop !9

for.end:                                          ; preds = %for.inc, %entry
  ret ptr %dst

eh.resume:                                        ; preds = %lpad8, %lpad
  %ref.tmp7.sink = phi ptr [ %ref.tmp7, %lpad8 ], [ %ref.tmp, %lpad ]
  %.pn = phi { ptr, i32 } [ %16, %lpad8 ], [ %15, %lpad ]
  call void @_ZN6icu_7513UnicodeStringD1Ev(ptr noundef nonnull align 8 dereferenceable(64) %ref.tmp7.sink) #12
  resume { ptr, i32 } %.pn
}